; ModuleID = 'source-C-CXX/27/1302.c'
source_filename = "source-C-CXX/27/1302.c"
target datalayout = "e-m:e-p270:32:32-p271:32:32-p272:64:64-i64:64-f80:128-n8:16:32:64-S128"
target triple = "x86_64-pc-linux-gnu"

@.str = private unnamed_addr constant [3 x i8] c"%c\00", align 1
@.str.1 = private unnamed_addr constant [4 x i8] c"%d,\00", align 1
@.str.2 = private unnamed_addr constant [3 x i8] c"%d\00", align 1

; Function Attrs: nofree nounwind sspstrong uwtable
define dso_local i32 @main() local_unnamed_addr #0 {
  %1 = alloca i8, align 1
  %2 = alloca [300 x i32], align 16
  call void @llvm.lifetime.start.p0i8(i64 1, i8* nonnull %1) #4
  %3 = bitcast [300 x i32]* %2 to i8*
  call void @llvm.lifetime.start.p0i8(i64 1200, i8* nonnull %3) #4
  call void @llvm.memset.p0i8.i64(i8* noundef nonnull align 16 dereferenceable(1200) %3, i8 0, i64 1200, i1 false)
  br label %4

4:                                                ; preds = %16, %0
  %5 = phi i32 [ %21, %16 ], [ 0, %0 ]
  br label %6

6:                                                ; preds = %4, %22
  %7 = phi i32 [ %23, %22 ], [ 0, %4 ]
  %8 = call i32 (i8*, ...) @__isoc99_scanf(i8* getelementptr inbounds ([3 x i8], [3 x i8]* @.str, i64 0, i64 0), i8* nonnull %1)
  %9 = load i8, i8* %1, align 1, !tbaa !5
  switch i8 %9, label %22 [
    i8 10, label %10
    i8 32, label %16
  ]

10:                                               ; preds = %6
  %11 = zext i32 %5 to i64
  %12 = getelementptr inbounds [300 x i32], [300 x i32]* %2, i64 0, i64 %11
  store i32 %7, i32* %12, align 4, !tbaa !8
  %13 = icmp eq i32 %5, 0
  br i1 %13, label %31, label %14

14:                                               ; preds = %10
  %15 = zext i32 %5 to i64
  br label %24

16:                                               ; preds = %6
  %17 = zext i32 %5 to i64
  %18 = getelementptr inbounds [300 x i32], [300 x i32]* %2, i64 0, i64 %17
  store i32 %7, i32* %18, align 4, !tbaa !8
  %19 = icmp ne i32 %7, 0
  %20 = zext i1 %19 to i32
  %21 = add nuw nsw i32 %5, %20
  br label %4

22:                                               ; preds = %6
  %23 = add nuw nsw i32 %7, 1
  br label %6

24:                                               ; preds = %14, %24
  %25 = phi i64 [ 0, %14 ], [ %29, %24 ]
  %26 = getelementptr inbounds [300 x i32], [300 x i32]* %2, i64 0, i64 %25
  %27 = load i32, i32* %26, align 4, !tbaa !8
  %28 = call i32 (i8*, ...) @printf(i8* nonnull dereferenceable(1) getelementptr inbounds ([4 x i8], [4 x i8]* @.str.1, i64 0, i64 0), i32 %27)
  %29 = add nuw nsw i64 %25, 1
  %30 = icmp eq i64 %29, %15
  br i1 %30, label %31, label %24, !llvm.loop !10

31:                                               ; preds = %24, %10
  %32 = phi i32 [ 0, %10 ], [ %5, %24 ]
  %33 = zext i32 %32 to i64
  %34 = getelementptr inbounds [300 x i32], [300 x i32]* %2, i64 0, i64 %33
  %35 = load i32, i32* %34, align 4, !tbaa !8
  %36 = call i32 (i8*, ...) @printf(i8* nonnull dereferenceable(1) getelementptr inbounds ([3 x i8], [3 x i8]* @.str.2, i64 0, i64 0), i32 %35)
  call void @llvm.lifetime.end.p0i8(i64 1200, i8* nonnull %3) #4
  call void @llvm.lifetime.end.p0i8(i64 1, i8* nonnull %1) #4
  ret i32 0
}

; Function Attrs: argmemonly mustprogress nofree nosync nounwind willreturn
declare void @llvm.lifetime.start.p0i8(i64 immarg, i8* nocapture) #1

; Function Attrs: argmemonly mustprogress nofree nounwind willreturn writeonly
declare void @llvm.memset.p0i8.i64(i8* nocapture writeonly, i8, i64, i1 immarg) #2

; Function Attrs: nofree nounwind
declare noundef i32 @__isoc99_scanf(i8* nocapture noundef readonly, ...) local_unnamed_addr #3

; Function Attrs: nofree nounwind
declare noundef i32 @printf(i8* nocapture noundef readonly, ...) local_unnamed_addr #3

; Function Attrs: argmemonly mustprogress nofree nosync nounwind willreturn
declare void @llvm.lifetime.end.p0i8(i64 immarg, i8* nocapture) #1


!llvm.module.flags = !{!0, !1, !2, !3}
!llvm.ident = !{!4}

!0 = !{i32 1, !"wchar_size", i32 4}
!1 = !{i32 7, !"PIC Level", i32 2}
!2 = !{i32 7, !"PIE Level", i32 2}
!3 = !{i32 7, !"uwtable", i32 1}
!4 = !{!"clang version 13.0.0"}
!5 = !{!6, !6, i64 0}
!6 = !{!"omnipotent char", !7, i64 0}
!7 = !{!"Simple C/C++ TBAA"}
!8 = !{!9, !9, i64 0}
!9 = !{!"int", !6, i64 0}
!10 = distinct !{!10, !11}
!11 = !{!"llvm.loop.mustprogress"}
